
# abi_base.txt has stuff explicitly added.
# abi.txt has abi_base and also automatically added stuff.
# abi_gen.txt lists symbols that are manually picked but automatically generated.

# From abi_stdio.h

disp_get_framebuffer
disp_get_pax_buffer
disp_flush

__get_reent
__get_global_reent

tmpfile
tmpnam
fopen
fclose
fflush
freopen
setvbuf

fprintf
fscanf
printf
scanf
sscanf
sprintf
snprintf

fgetc
fgets
fputc
fputs
getc
getchar
gets
putc
putchar
puts
ungetc

fread
fwrite

fgetpos
fseek
fsetpos

ftell
rewind
clearerr
feof
ferror
perror

remove
rename

# From abi_time.h

micros
millis
sleep_until
sleep_us
sleep_ms

# From abi_gpio.h

gpio_set_function
gpio_get_function
gpio_set_pulls
gpio_set_input_enabled
gpio_set_input_hysteresis_enabled
gpio_is_input_hysteresis_enabled

gpio_set_slew_rate
gpio_get_slew_rate
gpio_set_drive_strength
gpio_get_drive_strength

gpio_set_irq_enabled
gpio_set_irq_callback
gpio_set_irq_enabled_with_callback
gpio_set_dormant_irq_enabled
gpio_acknowledge_irq

gpio_init
gpio_deinit
gpio_init_mask

# From abi_malloc.h

malloc
free
calloc
realloc
meminfo_total
meminfo_inuse
meminfo_free

# Begin generated section.

PRIVATE_pax_font_marker
PRIVATE_pax_font_saira_condensed
PRIVATE_pax_font_saira_regular
PRIVATE_pax_font_sky
PRIVATE_pax_font_sky_mono
_ZN3pax11TextElement10getDescentERNS_7TextBoxERNS_9TextStyleE
_ZN3pax11TextElement10updateTextENSt7__cxx1112basic_stringIcSt11char_traitsIcESaIcEEE
_ZN3pax11TextElement4drawERNS_6BufferERNS_7TextBoxERNS_9TextStyleE
_ZN3pax11TextElement8calcSizeERNS_7TextBoxERNS_9TextStyleE
_ZN3pax11TextElement8getWidthERNS_7TextBoxERNS_9TextStyleE
_ZN3pax11TextElement9getAscentERNS_7TextBoxERNS_9TextStyleE
_ZN3pax11TextElementC1ENSt7__cxx1112basic_stringIcSt11char_traitsIcESaIcEEE
_ZN3pax11TextElementC2ENSt7__cxx1112basic_stringIcSt11char_traitsIcESaIcEEE
_ZN3pax12ImageElement10getDescentERNS_7TextBoxERNS_9TextStyleE
_ZN3pax12ImageElement4drawERNS_6BufferERNS_7TextBoxERNS_9TextStyleE
_ZN3pax12ImageElement8calcSizeERNS_7TextBoxERNS_9TextStyleE
_ZN3pax12ImageElement8getWidthERNS_7TextBoxERNS_9TextStyleE
_ZN3pax12ImageElement9getAscentERNS_7TextBoxERNS_9TextStyleE
_ZN3pax12ImageElementC1EP7pax_buf
_ZN3pax12ImageElementC1EPNS_6BufferE
_ZN3pax12ImageElementC2EP7pax_buf
_ZN3pax12ImageElementC2EPNS_6BufferE
_ZN3pax12SpaceElement8calcSizeERNS_7TextBoxERNS_9TextStyleE
_ZN3pax12SpaceElement8getWidthERNS_7TextBoxERNS_9TextStyleE
_ZN3pax3hsvEhhh
_ZN3pax4ahsvEhhhh
_ZN3pax4lerpEhmm
_ZN3pax4tintEmm
_ZN3pax5Shape10getOutlineEv
_ZN3pax5Shape12updateBoundsEv
_ZN3pax5Shape12updateTriangEv
_ZN3pax5Shape9_int_drawEP7pax_bufmPK10pax_shaderb
_ZN3pax5Shape9getBoundsEv
_ZN3pax5ShapeC1ESt6vectorI8pax_vec1SaIS2_EE
_ZN3pax5ShapeC1Ev
_ZN3pax5ShapeC2ESt6vectorI8pax_vec1SaIS2_EE
_ZN3pax5ShapeC2Ev
_ZN3pax5ShapeD0Ev
_ZN3pax5ShapeD1Ev
_ZN3pax5ShapeD2Ev
_ZN3pax5ShapeeqERKS0_
_ZN3pax5mergeEmm
_ZN3pax6Buffer10backgroundEm
_ZN3pax6Buffer10drawCircleEPNS_6ShaderEP8pax_vec4fff
_ZN3pax6Buffer10drawCircleEfff
_ZN3pax6Buffer10drawCircleEmPNS_6ShaderEP8pax_vec4fff
_ZN3pax6Buffer10drawCircleEmfff
_ZN3pax6Buffer10drawStringEPK8pax_fontfffNSt7__cxx1112basic_stringIcSt11char_traitsIcESaIcEEE
_ZN3pax6Buffer10drawStringEmPK8pax_fontfffNSt7__cxx1112basic_stringIcSt11char_traitsIcESaIcEEE
_ZN3pax6Buffer10mergePixelEmii
_ZN3pax6Buffer10outlineArcEfffff
_ZN3pax6Buffer10outlineArcEmfffff
_ZN3pax6Buffer10outlineTriEffffff
_ZN3pax6Buffer10outlineTriEmffffff
_ZN3pax6Buffer10pushMatrixEv
_ZN3pax6Buffer10stringSizeEPK8pax_fontfNSt7__cxx1112basic_stringIcSt11char_traitsIcESaIcEEE
_ZN3pax6Buffer11applyMatrixE9matrix_2d
_ZN3pax6Buffer11clearMatrixEb
_ZN3pax6Buffer11clearMatrixEv
_ZN3pax6Buffer11getInternalEv
_ZN3pax6Buffer11outlineRectEffff
_ZN3pax6Buffer11outlineRectEmffff
_ZN3pax6Buffer12getDirtyRectEv
_ZN3pax6Buffer12rotateAroundEfff
_ZN3pax6Buffer13outlineCircleEfff
_ZN3pax6Buffer13outlineCircleEmfff
_ZN3pax6Buffer14getPixelBufferEv
_ZN3pax6Buffer17reverseEndiannessEb
_ZN3pax6Buffer18drawStringCenteredEPK8pax_fontfffNSt7__cxx1112basic_stringIcSt11char_traitsIcESaIcEEE
_ZN3pax6Buffer18drawStringCenteredEmPK8pax_fontfffNSt7__cxx1112basic_stringIcSt11char_traitsIcESaIcEEE
_ZN3pax6Buffer4clipEiiii
_ZN3pax6Buffer4drawEffPNS_5ShapeE
_ZN3pax6Buffer4drawEffRNS_5ShapeE
_ZN3pax6Buffer4drawEmPNS_6ShaderEffPNS_5ShapeE
_ZN3pax6Buffer4drawEmPNS_6ShaderEffRNS_5ShapeE
_ZN3pax6Buffer4drawEmffPNS_5ShapeE
_ZN3pax6Buffer4drawEmffRNS_5ShapeE
_ZN3pax6Buffer4typeEv
_ZN3pax6Buffer5scaleEf
_ZN3pax6Buffer5scaleEff
_ZN3pax6Buffer5shearEff
_ZN3pax6Buffer5widthEv
_ZN3pax6Buffer6heightEv
_ZN3pax6Buffer6noClipEv
_ZN3pax6Buffer6rotateEf
_ZN3pax6Buffer7drawArcEPNS_6ShaderEP8pax_vec4fffff
_ZN3pax6Buffer7drawArcEfffff
_ZN3pax6Buffer7drawArcEmPNS_6ShaderEP8pax_vec4fffff
_ZN3pax6Buffer7drawArcEmfffff
_ZN3pax6Buffer7drawTriEPNS_6ShaderEP8pax_vec3ffffff
_ZN3pax6Buffer7drawTriEffffff
_ZN3pax6Buffer7drawTriEmPNS_6ShaderEP8pax_vec3ffffff
_ZN3pax6Buffer7drawTriEmffffff
_ZN3pax6Buffer7isDirtyEv
_ZN3pax6Buffer7outlineEffPNS_5ShapeE
_ZN3pax6Buffer7outlineEffRNS_5ShapeE
_ZN3pax6Buffer7outlineEmPNS_6ShaderEffPNS_5ShapeE
_ZN3pax6Buffer7outlineEmPNS_6ShaderEffRNS_5ShapeE
_ZN3pax6Buffer7outlineEmffPNS_5ShapeE
_ZN3pax6Buffer7outlineEmffRNS_5ShapeE
_ZN3pax6Buffer8drawLineEffff
_ZN3pax6Buffer8drawLineEmffff
_ZN3pax6Buffer8drawRectEPNS_6ShaderEP8pax_vec4ffff
_ZN3pax6Buffer8drawRectEffff
_ZN3pax6Buffer8drawRectEmPNS_6ShaderEP8pax_vec4ffff
_ZN3pax6Buffer8drawRectEmffff
_ZN3pax6Buffer8getPixelEii
_ZN3pax6Buffer8setPixelEmii
_ZN3pax6Buffer9drawImageEP7pax_bufff
_ZN3pax6Buffer9drawImageEP7pax_bufffff
_ZN3pax6Buffer9markCleanEv
_ZN3pax6Buffer9markDirtyEii
_ZN3pax6Buffer9markDirtyEiiii
_ZN3pax6Buffer9markDirtyEv
_ZN3pax6Buffer9popMatrixEv
_ZN3pax6Buffer9translateEff
_ZN3pax6BufferC1EP7pax_buf
_ZN3pax6BufferC1EPvii12pax_buf_type
_ZN3pax6BufferC1Eii12pax_buf_type
_ZN3pax6BufferC1Ev
_ZN3pax6BufferC2EP7pax_buf
_ZN3pax6BufferC2EPvii12pax_buf_type
_ZN3pax6BufferC2Eii12pax_buf_type
_ZN3pax6BufferC2Ev
_ZN3pax6BufferD1Ev
_ZN3pax6BufferD2Ev
_ZN3pax6Circle4initEfj
_ZN3pax6Circle6radiusEv
_ZN3pax6Circle9_int_drawEP7pax_bufmPK10pax_shaderb
_ZN3pax6CircleC1Ef
_ZN3pax6CircleC1Efj
_ZN3pax6CircleC1Ev
_ZN3pax6CircleC2Ef
_ZN3pax6CircleC2Efj
_ZN3pax6CircleC2Ev
_ZN3pax6Shader11getInternalEv
_ZN3pax6Shader5applyEmiiff
_ZN3pax6ShaderC1EP10pax_shader
_ZN3pax6ShaderC1ESt8functionIFmmmiiffPvEES2_
_ZN3pax6ShaderC1Ev
_ZN3pax6ShaderC2EP10pax_shader
_ZN3pax6ShaderC2ESt8functionIFmmmiiffPvEES2_
_ZN3pax6ShaderC2Ev
_ZN3pax6ShaderD1Ev
_ZN3pax6ShaderD2Ev
_ZN3pax7TextBox10appendTextENSt7__cxx1112basic_stringIcSt11char_traitsIcESaIcEEE
_ZN3pax7TextBox11appendStyleENS_9TextStyleE
_ZN3pax7TextBox4drawERNS_6BufferE
_ZN3pax7hsv_altEthh
_ZN3pax8ahsv_altEhthh
_ZN3pax9LerpShape11interpolateEf
_ZN3pax9LerpShape12insertPointsERSt6vectorI8pax_vec1SaIS2_EEjj
_ZN3pax9LerpShape16distributePointsERSt6vectorI8pax_vec1SaIS2_EEj
_ZN3pax9LerpShape5coeffEv
_ZN3pax9LerpShape6targetEv
_ZN3pax9LerpShape8originalEv
_ZN3pax9LerpShape9setShapesEv
_ZN3pax9LerpShape9withCoeffEf
_ZN3pax9LerpShapeC1ERNS_5ShapeES2_f
_ZN3pax9LerpShapeC1ERS0_f
_ZN3pax9LerpShapeC1Ev
_ZN3pax9LerpShapeC2ERNS_5ShapeES2_f
_ZN3pax9LerpShapeC2ERS0_f
_ZN3pax9LerpShapeC2Ev
_ZN3pax9Rectangle4initEffff
_ZN3pax9Rectangle9_int_drawEP7pax_bufmPK10pax_shaderb
_ZN3pax9RectangleC1Eff
_ZN3pax9RectangleC1Effff
_ZN3pax9RectangleC1Ev
_ZN3pax9RectangleC2Eff
_ZN3pax9RectangleC2Effff
_ZN3pax9RectangleC2Ev
_ZTIN3pax11TextElementE
_ZTIN3pax12ImageElementE
_ZTIN3pax12SpaceElementE
_ZTIN3pax5ShapeE
_ZTIN3pax6CircleE
_ZTIN3pax9RectangleE
_ZTSN3pax11TextElementE
_ZTSN3pax12ImageElementE
_ZTSN3pax12SpaceElementE
_ZTSN3pax5ShapeE
_ZTSN3pax6CircleE
_ZTSN3pax9RectangleE
_ZTVN3pax11TextElementE
_ZTVN3pax12ImageElementE
_ZTVN3pax12SpaceElementE
_ZTVN3pax5ShapeE
_ZTVN3pax6CircleE
_ZTVN3pax9RectangleE
matrix_2d_multiply
matrix_2d_rotate
matrix_2d_transform
pax_1111_argb_to_col
pax_1_grey_to_col
pax_2222_argb_to_col
pax_2_grey_to_col
pax_332_rgb_to_col
pax_4444_argb_to_col
pax_4_grey_to_col
pax_565_rgb_to_col
pax_8_grey_to_col
pax_apply_2d
pax_background
pax_buf2col
pax_buf_convert
pax_buf_destroy
pax_buf_init
pax_buf_reversed
pax_center_text
pax_clip
pax_col2buf
pax_col_ahsv
pax_col_conv_dummy
pax_col_hsv
pax_col_lerp
pax_col_merge
pax_col_tint
pax_col_to_1111_argb
pax_col_to_1_grey
pax_col_to_2222_argb
pax_col_to_2_grey
pax_col_to_332_rgb
pax_col_to_4444_argb
pax_col_to_4_grey
pax_col_to_565_rgb
pax_col_to_8_grey
pax_debug
pax_desc_err
pax_disable_multicore
pax_do_multicore
pax_draw_arc
pax_draw_bezier
pax_draw_bezier_part
pax_draw_circle
pax_draw_image
pax_draw_image_op
pax_draw_image_sized
pax_draw_image_sized_op
pax_draw_line
pax_draw_rect
pax_draw_shape
pax_draw_shape_triang
pax_draw_text
pax_draw_text_aa
pax_draw_text_noaa
pax_draw_tri
pax_enable_multicore
pax_enable_shape_aa
pax_font_sky_ranges
pax_font_sky_ranges_len
pax_fonts_index
pax_get_col_conv
pax_get_font
pax_get_index
pax_get_index_conv
pax_get_pixel
pax_get_pixel_u
pax_get_setter
pax_get_setters
pax_index_getter_16bpp
pax_index_getter_16bpp_rev
pax_index_getter_1bpp
pax_index_getter_2bpp
pax_index_getter_32bpp
pax_index_getter_32bpp_rev
pax_index_getter_4bpp
pax_index_getter_8bpp
pax_index_setter_16bpp
pax_index_setter_16bpp_rev
pax_index_setter_1bpp
pax_index_setter_2bpp
pax_index_setter_32bpp
pax_index_setter_32bpp_rev
pax_index_setter_4bpp
pax_index_setter_8bpp
pax_is_dirty
pax_join
pax_last_error
pax_line_shaded
pax_line_unshaded
pax_load_font
pax_mark_clean
pax_mark_dirty0
pax_mark_dirty1
pax_mark_dirty2
pax_merge_index
pax_merge_pixel
pax_n_fonts
pax_noclip
pax_outline_arc
pax_outline_circle
pax_outline_rect
pax_outline_shape
pax_outline_shape_cl
pax_outline_shape_part
pax_outline_shape_part_cl
pax_outline_tri
pax_overlay_buffer
pax_pal_lookup
pax_pop_2d
pax_precalc_circle_16
pax_precalc_circle_24
pax_precalc_circle_32
pax_precalc_circle_4
pax_precalc_uv_circle_16
pax_precalc_uv_circle_24
pax_precalc_uv_circle_32
pax_precalc_uv_circle_4
pax_push_2d
pax_rect_shaded
pax_rect_shaded1
pax_rect_unshaded
pax_report_error
pax_reset_2d
pax_round_shape
pax_round_shape_uniform
pax_set_index
pax_set_index_conv
pax_set_pixel
pax_set_pixel_u
pax_shade_arc
pax_shade_circle
pax_shade_line
pax_shade_rect
pax_shade_tri
pax_shader_font_bmp
pax_shader_font_bmp_aa
pax_shader_font_bmp_hi
pax_shader_font_bmp_hi_aa
pax_shader_texture
pax_shader_texture_aa
pax_simple_arc
pax_simple_circle
pax_simple_line
pax_simple_rect
pax_simple_tri
pax_store_font
pax_text_size
pax_transform_shape
pax_tri_shaded
pax_tri_unshaded
pax_triang_complete
pax_triang_concave
pax_trunc_to_1
pax_trunc_to_16
pax_trunc_to_2
pax_trunc_to_4
pax_trunc_to_8
pax_utf8_getch
pax_utf8_strlen
pax_vectorise_arc
pax_vectorise_bezier
pax_vectorise_bezier_part
pax_vectorise_circle
permanentmarker_ranges
permanentmarker_ranges_len
sairacondensed_ranges
sairacondensed_ranges_len
sairaregular_ranges
sairaregular_ranges_len
vec1_unify
__aeabi_dadd
__aeabi_ddiv
__aeabi_dmul
__aeabi_drsub
__aeabi_dsub
__aeabi_cdcmpeq
__aeabi_cdrcmple
__aeabi_cdcmple
__aeabi_dcmpeq
__aeabi_dcmplt
__aeabi_dcmple
__aeabi_dcmpge
__aeabi_dcmpgt
__aeabi_dcmpun
__aeabi_i2d
__aeabi_l2d
__aeabi_ui2d
__aeabi_ul2d
__aeabi_d2iz
__aeabi_d2lz
__aeabi_d2uiz
__aeabi_d2ulz
__aeabi_d2f
__aeabi_uidivmod
__aeabi_uidiv
